target datalayout = "e-m:e-p270:32:32-p271:32:32-p272:64:64-i64:64-i128:128-f80:128-n8:16:32:64-S128"
target triple = "x86_64-pc-linux-gnu"

@_ZN8UCaseMapC1EPKcjP10UErrorCode = unnamed_addr alias void (ptr, ptr, i32, ptr), ptr @_ZN8UCaseMapC2EPKcjP10UErrorCode
@_ZN8UCaseMapD1Ev = unnamed_addr alias void (ptr), ptr @_ZN8UCaseMapD2Ev

; Function Attrs: inlinehint mustprogress nounwind uwtable
define internal noundef signext i8 @_ZL9U_FAILURE10UErrorCode(i32 noundef %0) #2 {
  %2 = alloca i32, align 4
  store i32 %0, ptr %2, align 4, !tbaa !15
  %3 = load i32, ptr %2, align 4, !tbaa !15
  %4 = icmp sgt i32 %3, 0
  %5 = zext i1 %4 to i8
  ret i8 %5
}

; Function Attrs: mustprogress uwtable
define ptr @ucasemap_open_77(ptr noundef %0, i32 noundef %1, ptr noundef %2) #1 personality ptr @__gxx_personality_v0 {
  %4 = alloca ptr, align 8
  %5 = alloca ptr, align 8
  %6 = alloca i32, align 4
  %7 = alloca ptr, align 8
  %8 = alloca ptr, align 8
  %9 = alloca ptr, align 8
  %10 = alloca i1, align 1
  %11 = alloca ptr, align 8
  %12 = alloca i32, align 4
  %13 = alloca i32, align 4
  store ptr %0, ptr %5, align 8, !tbaa !17
  store i32 %1, ptr %6, align 4, !tbaa !14
  store ptr %2, ptr %7, align 8, !tbaa !22
  %14 = load ptr, ptr %7, align 8, !tbaa !22
  %15 = load i32, ptr %14, align 4, !tbaa !15
  %16 = call noundef signext i8 @_ZL9U_FAILURE10UErrorCode(i32 noundef %15)
  %17 = icmp ne i8 %16, 0
  br i1 %17, label %18, label %19

18:                                               ; preds = %3
  store ptr null, ptr %4, align 8
  br label %55

19:                                               ; preds = %3
  call void @llvm.lifetime.start.p0(i64 8, ptr %8) #12
  %20 = call noundef ptr @_ZN6icu_777UMemorynwEm(i64 noundef 48) #12
  %21 = icmp eq ptr %20, null
  store i1 false, ptr %10, align 1
  br i1 %21, label %27, label %22

22:                                               ; preds = %19
  store ptr %20, ptr %9, align 8
  store i1 true, ptr %10, align 1
  %23 = load ptr, ptr %5, align 8, !tbaa !17
  %24 = load i32, ptr %6, align 4, !tbaa !14
  %25 = load ptr, ptr %7, align 8, !tbaa !22
  invoke void @_ZN8UCaseMapC1EPKcjP10UErrorCode(ptr noundef nonnull align 8 dereferenceable(48) %20, ptr noundef %23, i32 noundef %24, ptr noundef %25)
          to label %26 unwind label %33

26:                                               ; preds = %22
  br label %27

27:                                               ; preds = %26, %19
  %28 = phi ptr [ %20, %26 ], [ null, %19 ]
  store ptr %28, ptr %8, align 8, !tbaa !23
  %29 = load ptr, ptr %8, align 8, !tbaa !23
  %30 = icmp eq ptr %29, null
  br i1 %30, label %31, label %41

31:                                               ; preds = %27
  %32 = load ptr, ptr %7, align 8, !tbaa !22
  store i32 7, ptr %32, align 4, !tbaa !15
  store ptr null, ptr %4, align 8
  store i32 1, ptr %13, align 4
  br label %54

33:                                               ; preds = %22
  %34 = landingpad { ptr, i32 }
          cleanup
  %35 = extractvalue { ptr, i32 } %34, 0
  store ptr %35, ptr %11, align 8
  %36 = extractvalue { ptr, i32 } %34, 1
  store i32 %36, ptr %12, align 4
  %37 = load i1, ptr %10, align 1
  br i1 %37, label %38, label %40

38:                                               ; preds = %33
  %39 = load ptr, ptr %9, align 8
  call void @_ZN6icu_777UMemorydlEPv(ptr noundef %39) #12
  br label %40

40:                                               ; preds = %38, %33
  call void @llvm.lifetime.end.p0(i64 8, ptr %8) #12
  br label %57

41:                                               ; preds = %27
  %42 = load ptr, ptr %7, align 8, !tbaa !22
  %43 = load i32, ptr %42, align 4, !tbaa !15
  %44 = call noundef signext i8 @_ZL9U_FAILURE10UErrorCode(i32 noundef %43)
  %45 = icmp ne i8 %44, 0
  br i1 %45, label %46, label %51

46:                                               ; preds = %41
  %47 = load ptr, ptr %8, align 8, !tbaa !23
  %48 = icmp eq ptr %47, null
  br i1 %48, label %50, label %49

49:                                               ; preds = %46
  call void @_ZN8UCaseMapD1Ev(ptr noundef nonnull align 8 dereferenceable(48) %47) #12
  call void @_ZN6icu_777UMemorydlEPv(ptr noundef %47) #12
  br label %50

50:                                               ; preds = %49, %46
  store ptr null, ptr %4, align 8
  store i32 1, ptr %13, align 4
  br label %54

51:                                               ; preds = %41
  br label %52

52:                                               ; preds = %51
  %53 = load ptr, ptr %8, align 8, !tbaa !23
  store ptr %53, ptr %4, align 8
  store i32 1, ptr %13, align 4
  br label %54

54:                                               ; preds = %52, %50, %31
  call void @llvm.lifetime.end.p0(i64 8, ptr %8) #12
  br label %55

55:                                               ; preds = %54, %18
  %56 = load ptr, ptr %4, align 8
  ret ptr %56

57:                                               ; preds = %40
  %58 = load ptr, ptr %11, align 8
  %59 = load i32, ptr %12, align 4
  %60 = insertvalue { ptr, i32 } poison, ptr %58, 0
  %61 = insertvalue { ptr, i32 } %60, i32 %59, 1
  resume { ptr, i32 } %61
}