; Function Attrs: mustprogress uwtable
define noundef ptr @ucasemap_open_77(ptr noundef %0, i32 noundef %1, ptr noundef %2) local_unnamed_addr #1 personality ptr @__gxx_personality_v0 {
  %4 = load i32, ptr %2, align 4, !tbaa !13
  %5 = icmp slt i32 %4, 1
  br i1 %5, label %6, label %17

6:                                                ; preds = %3
  %7 = tail call noundef ptr @_ZN6icu_777UMemorynwEm(i64 noundef 48) #17
  %8 = icmp eq ptr %7, null
  br i1 %8, label %10, label %9

9:                                                ; preds = %6
  invoke void @_ZN8UCaseMapC1EPKcjP10UErrorCode(ptr noundef nonnull align 8 dereferenceable(48) %7, ptr noundef %0, i32 noundef %1, ptr noundef nonnull %2)
          to label %13 unwind label %11

10:                                               ; preds = %6
  store i32 7, ptr %2, align 4, !tbaa !13
  br label %17

11:                                               ; preds = %9
  %12 = landingpad { ptr, i32 }
          cleanup
  tail call void @_ZN6icu_777UMemorydlEPv(ptr noundef nonnull %7) #17
  resume { ptr, i32 } %12

13:                                               ; preds = %9
  %14 = load i32, ptr %2, align 4, !tbaa !13
  %15 = icmp slt i32 %14, 1
  br i1 %15, label %17, label %16

16:                                               ; preds = %13
  tail call void @_ZN8UCaseMapD1Ev(ptr noundef nonnull align 8 dereferenceable(48) %7) #17
  tail call void @_ZN6icu_777UMemorydlEPv(ptr noundef nonnull %7) #17
  br label %17

17:                                               ; preds = %10, %16, %13, %3
  %.0 = phi ptr [ null, %3 ], [ null, %10 ], [ null, %16 ], [ %7, %13 ]
  ret ptr %.0
}